; Function Attrs: mustprogress uwtable
define void @_ZN6casadi8Sparsity11deserializeERSi(ptr dead_on_unwind noalias writable sret(%"class.casadi::Sparsity") align 8 %0, ptr noundef nonnull align 8 dereferenceable(16) %1) local_unnamed_addr #3 align 2 personality ptr @__gxx_personality_v0 {
  %3 = alloca %"class.casadi::DeserializingStream", align 8
  call void @_ZN6casadi19DeserializingStreamC1ERSi(ptr noundef nonnull align 8 dereferenceable(41) %3, ptr noundef nonnull align 8 dereferenceable(16) %1)
  invoke void @_ZN6casadi8Sparsity11deserializeERNS_19DeserializingStreamE(ptr dead_on_unwind writable sret(%"class.casadi::Sparsity") align 8 %0, ptr noundef nonnull align 8 dereferenceable(41) %3)
          to label %4 unwind label %11

4:                                                ; preds = %2
  %5 = load ptr, ptr %3, align 8
  %6 = getelementptr inbounds i8, ptr %3, i64 8
  %7 = load ptr, ptr %6, align 8
  %.not4.i.i.i.i.i = icmp eq ptr %5, %7
  br i1 %.not4.i.i.i.i.i, label %_ZSt8_DestroyIPN6casadi18UniversalNodeOwnerES1_EvT_S3_RSaIT0_E.exit.i.i, label %.lr.ph.i.i.i.i.i

.lr.ph.i.i.i.i.i:                                 ; preds = %4, %.lr.ph.i.i.i.i.i
  %.05.i.i.i.i.i = phi ptr [ %8, %.lr.ph.i.i.i.i.i ], [ %5, %4 ]
  call void @_ZN6casadi18UniversalNodeOwnerD1Ev(ptr noundef nonnull align 8 dereferenceable(9) %.05.i.i.i.i.i) #24
  %8 = getelementptr inbounds i8, ptr %.05.i.i.i.i.i, i64 16
  %.not.i.i.i.i.i = icmp eq ptr %8, %7
  br i1 %.not.i.i.i.i.i, label %_ZSt8_DestroyIPN6casadi18UniversalNodeOwnerES1_EvT_S3_RSaIT0_E.exitthread-pre-split.i.i, label %.lr.ph.i.i.i.i.i, !llvm.loop !383

_ZSt8_DestroyIPN6casadi18UniversalNodeOwnerES1_EvT_S3_RSaIT0_E.exitthread-pre-split.i.i: ; preds = %.lr.ph.i.i.i.i.i
  %.pr.i.i = load ptr, ptr %3, align 8
  br label %_ZSt8_DestroyIPN6casadi18UniversalNodeOwnerES1_EvT_S3_RSaIT0_E.exit.i.i

_ZSt8_DestroyIPN6casadi18UniversalNodeOwnerES1_EvT_S3_RSaIT0_E.exit.i.i: ; preds = %_ZSt8_DestroyIPN6casadi18UniversalNodeOwnerES1_EvT_S3_RSaIT0_E.exitthread-pre-split.i.i, %4
  %9 = phi ptr [ %.pr.i.i, %_ZSt8_DestroyIPN6casadi18UniversalNodeOwnerES1_EvT_S3_RSaIT0_E.exitthread-pre-split.i.i ], [ %5, %4 ]
  %.not.i.i.i.i = icmp eq ptr %9, null
  br i1 %.not.i.i.i.i, label %_ZN6casadi19DeserializingStreamD2Ev.exit, label %10

10:                                               ; preds = %_ZSt8_DestroyIPN6casadi18UniversalNodeOwnerES1_EvT_S3_RSaIT0_E.exit.i.i
  call void @_ZdlPv(ptr noundef nonnull %9) #26
  br label %_ZN6casadi19DeserializingStreamD2Ev.exit

_ZN6casadi19DeserializingStreamD2Ev.exit:         ; preds = %_ZSt8_DestroyIPN6casadi18UniversalNodeOwnerES1_EvT_S3_RSaIT0_E.exit.i.i, %10
  ret void

11:                                               ; preds = %2
  %12 = landingpad { ptr, i32 }
          cleanup
  call void @_ZN6casadi19DeserializingStreamD2Ev(ptr noundef nonnull align 8 dereferenceable(41) %3) #24
  resume { ptr, i32 } %12
}